target datalayout = "e-m:e-p270:32:32-p271:32:32-p272:64:64-i64:64-i128:128-f80:128-n8:16:32:64-S128"
target triple = "x86_64-pc-linux-gnu"

%struct.pkcs7_signer_info_st = type { ptr, ptr, ptr, ptr, ptr, ptr, ptr, ptr, ptr }

; Function Attrs: nounwind uwtable
define void @PKCS7_SIGNER_INFO_get0_algs(ptr noundef %0, ptr noundef %1, ptr noundef %2, ptr noundef %3) #0 {
  %5 = alloca ptr, align 8
  %6 = alloca ptr, align 8
  %7 = alloca ptr, align 8
  %8 = alloca ptr, align 8
  store ptr %0, ptr %5, align 8, !tbaa !52
  store ptr %1, ptr %6, align 8, !tbaa !124
  store ptr %2, ptr %7, align 8, !tbaa !126
  store ptr %3, ptr %8, align 8, !tbaa !126
  %9 = load ptr, ptr %6, align 8, !tbaa !124
  %10 = icmp ne ptr %9, null
  br i1 %10, label %11, label %16

11:                                               ; preds = %4
  %12 = load ptr, ptr %5, align 8, !tbaa !52
  %13 = getelementptr inbounds nuw %struct.pkcs7_signer_info_st, ptr %12, i32 0, i32 7
  %14 = load ptr, ptr %13, align 8, !tbaa !91
  %15 = load ptr, ptr %6, align 8, !tbaa !124
  store ptr %14, ptr %15, align 8, !tbaa !83
  br label %16

16:                                               ; preds = %11, %4
  %17 = load ptr, ptr %7, align 8, !tbaa !126
  %18 = icmp ne ptr %17, null
  br i1 %18, label %19, label %24

19:                                               ; preds = %16
  %20 = load ptr, ptr %5, align 8, !tbaa !52
  %21 = getelementptr inbounds nuw %struct.pkcs7_signer_info_st, ptr %20, i32 0, i32 2
  %22 = load ptr, ptr %21, align 8, !tbaa !60
  %23 = load ptr, ptr %7, align 8, !tbaa !126
  store ptr %22, ptr %23, align 8, !tbaa !67
  br label %24

24:                                               ; preds = %19, %16
  %25 = load ptr, ptr %8, align 8, !tbaa !126
  %26 = icmp ne ptr %25, null
  br i1 %26, label %27, label %32

27:                                               ; preds = %24
  %28 = load ptr, ptr %5, align 8, !tbaa !52
  %29 = getelementptr inbounds nuw %struct.pkcs7_signer_info_st, ptr %28, i32 0, i32 4
  %30 = load ptr, ptr %29, align 8, !tbaa !128
  %31 = load ptr, ptr %8, align 8, !tbaa !126
  store ptr %30, ptr %31, align 8, !tbaa !67
  br label %32

32:                                               ; preds = %27, %24
  ret void
}